; Function Attrs: mustprogress uwtable
define void @_ZN3nix14restoreSignalsEv() local_unnamed_addr #6 personality ptr @__gxx_personality_v0 {
  %.b1 = load i1, ptr @_ZN3nixL20savedSignalMaskIsSetE, align 1
  br i1 %.b1, label %1, label %8

1:                                                ; preds = %0
  %2 = tail call i32 @sigprocmask(i32 noundef 2, ptr noundef nonnull @_ZN3nixL15savedSignalMaskE, ptr noundef null) #3
  %.not = icmp eq i32 %2, 0
  br i1 %.not, label %8, label %3

3:                                                ; preds = %1
  %4 = tail call ptr @__cxa_allocate_exception(i64 384) #3
  invoke void @_ZN3nix8SysErrorC2IJA18_cEEEDpRKT_(ptr noundef nonnull align 8 dereferenceable(380) %4, ptr noundef nonnull align 1 dereferenceable(18) @.str.7)
          to label %5 unwind label %6

5:                                                ; preds = %3
  tail call void @__cxa_throw(ptr nonnull %4, ptr nonnull @_ZTIN3nix8SysErrorE, ptr nonnull @_ZN3nix8SysErrorD2Ev) #27
  unreachable

6:                                                ; preds = %3
  %7 = landingpad { ptr, i32 }
          cleanup
  tail call void @__cxa_free_exception(ptr %4) #3
  resume { ptr, i32 } %7

8:                                                ; preds = %0, %1
  ret void
}